target datalayout = "e-m:e-p270:32:32-p271:32:32-p272:64:64-i64:64-i128:128-f80:128-n8:16:32:64-S128"
target triple = "x86_64-pc-linux-gnu"

%struct.GCtab = type { %struct.GCRef, i8, i8, i8, i8, %struct.MRef, %struct.GCRef, %struct.GCRef, %struct.MRef, i32, i32, %struct.MRef }
%struct.GCRef = type { i64 }
%struct.MRef = type { i64 }
%struct.GCstr = type { %struct.GCRef, i8, i8, i8, i8, i32, i32, i32 }
%struct.Node = type { %union.TValue, %union.TValue, %struct.MRef }
%union.TValue = type { i64 }

@.str.1 = private unnamed_addr constant [24 x i8] c"store to dead GC object\00", align 1

; Function Attrs: alwaysinline nounwind uwtable
define internal void @checklivetv(ptr noundef %0, ptr noundef %1, ptr noundef %2) #2 {
  %4 = alloca ptr, align 8
  %5 = alloca ptr, align 8
  %6 = alloca ptr, align 8
  store ptr %0, ptr %4, align 8, !tbaa !4
  store ptr %1, ptr %5, align 8, !tbaa !31
  store ptr %2, ptr %6, align 8, !tbaa !89
  ret void
}

; Function Attrs: alwaysinline nounwind uwtable
define internal void @setgcVraw(ptr noundef %0, ptr noundef %1, i32 noundef %2) #2 {
  %4 = alloca ptr, align 8
  %5 = alloca ptr, align 8
  %6 = alloca i32, align 4
  store ptr %0, ptr %4, align 8, !tbaa !31
  store ptr %1, ptr %5, align 8, !tbaa !77
  store i32 %2, ptr %6, align 4, !tbaa !9
  %7 = load ptr, ptr %5, align 8, !tbaa !77
  %8 = ptrtoint ptr %7 to i64
  %9 = load i32, ptr %6, align 4, !tbaa !9
  %10 = zext i32 %9 to i64
  %11 = shl i64 %10, 47
  %12 = or i64 %8, %11
  %13 = load ptr, ptr %4, align 8, !tbaa !31
  %14 = getelementptr inbounds nuw %struct.GCRef, ptr %13, i32 0, i32 0
  store i64 %12, ptr %14, align 8, !tbaa !32
  ret void
}

; Function Attrs: alwaysinline nounwind uwtable
define internal void @setgcV(ptr noundef %0, ptr noundef %1, ptr noundef %2, i32 noundef %3) #2 {
  %5 = alloca ptr, align 8
  %6 = alloca ptr, align 8
  %7 = alloca ptr, align 8
  %8 = alloca i32, align 4
  store ptr %0, ptr %5, align 8, !tbaa !4
  store ptr %1, ptr %6, align 8, !tbaa !31
  store ptr %2, ptr %7, align 8, !tbaa !77
  store i32 %3, ptr %8, align 4, !tbaa !9
  %9 = load ptr, ptr %6, align 8, !tbaa !31
  %10 = load ptr, ptr %7, align 8, !tbaa !77
  %11 = load i32, ptr %8, align 4, !tbaa !9
  call void @setgcVraw(ptr noundef %9, ptr noundef %10, i32 noundef %11)
  %12 = load ptr, ptr %5, align 8, !tbaa !4
  %13 = load ptr, ptr %6, align 8, !tbaa !31
  call void @checklivetv(ptr noundef %12, ptr noundef %13, ptr noundef @.str.1)
  ret void
}

; Function Attrs: alwaysinline nounwind uwtable
define internal void @setstrV(ptr noundef %0, ptr noundef %1, ptr noundef %2) #2 {
  %4 = alloca ptr, align 8
  %5 = alloca ptr, align 8
  %6 = alloca ptr, align 8
  store ptr %0, ptr %4, align 8, !tbaa !4
  store ptr %1, ptr %5, align 8, !tbaa !31
  store ptr %2, ptr %6, align 8, !tbaa !66
  %7 = load ptr, ptr %4, align 8, !tbaa !4
  %8 = load ptr, ptr %5, align 8, !tbaa !31
  %9 = load ptr, ptr %6, align 8, !tbaa !66
  call void @setgcV(ptr noundef %7, ptr noundef %8, ptr noundef %9, i32 noundef -5)
  ret void
}

; Function Attrs: alwaysinline nounwind uwtable
define internal ptr @hashmask(ptr noundef %0, i32 noundef %1) #2 {
  %3 = alloca ptr, align 8
  %4 = alloca i32, align 4
  %5 = alloca ptr, align 8
  store ptr %0, ptr %3, align 8, !tbaa !11
  store i32 %1, ptr %4, align 4, !tbaa !9
  call void @llvm.lifetime.start.p0(i64 8, ptr %5) #9
  %6 = load ptr, ptr %3, align 8, !tbaa !11
  %7 = getelementptr inbounds nuw %struct.GCtab, ptr %6, i32 0, i32 8
  %8 = getelementptr inbounds nuw %struct.MRef, ptr %7, i32 0, i32 0
  %9 = load i64, ptr %8, align 8, !tbaa !29
  %10 = inttoptr i64 %9 to ptr
  store ptr %10, ptr %5, align 8, !tbaa !27
  %11 = load ptr, ptr %5, align 8, !tbaa !27
  %12 = load i32, ptr %4, align 4, !tbaa !9
  %13 = load ptr, ptr %3, align 8, !tbaa !11
  %14 = getelementptr inbounds nuw %struct.GCtab, ptr %13, i32 0, i32 10
  %15 = load i32, ptr %14, align 4, !tbaa !13
  %16 = and i32 %12, %15
  %17 = zext i32 %16 to i64
  %18 = getelementptr inbounds nuw %struct.Node, ptr %11, i64 %17
  call void @llvm.lifetime.end.p0(i64 8, ptr %5) #9
  ret ptr %18
}

; Function Attrs: nounwind uwtable
define hidden ptr @lj_tab_setstr(ptr noundef %0, ptr noundef %1, ptr noundef %2) #0 {
  %4 = alloca ptr, align 8
  %5 = alloca ptr, align 8
  %6 = alloca ptr, align 8
  %7 = alloca ptr, align 8
  %8 = alloca %union.TValue, align 8
  %9 = alloca ptr, align 8
  %10 = alloca i32, align 4
  store ptr %0, ptr %5, align 8, !tbaa !4
  store ptr %1, ptr %6, align 8, !tbaa !11
  store ptr %2, ptr %7, align 8, !tbaa !66
  call void @llvm.lifetime.start.p0(i64 8, ptr %8) #9
  call void @llvm.lifetime.start.p0(i64 8, ptr %9) #9
  %11 = load ptr, ptr %6, align 8, !tbaa !11
  %12 = load ptr, ptr %7, align 8, !tbaa !66
  %13 = getelementptr inbounds nuw %struct.GCstr, ptr %12, i32 0, i32 5
  %14 = load i32, ptr %13, align 4, !tbaa !68
  %15 = call ptr @hashmask(ptr noundef %11, i32 noundef %14)
  store ptr %15, ptr %9, align 8, !tbaa !27
  br label %16

16:                                               ; preds = %36, %3
  %17 = load ptr, ptr %9, align 8, !tbaa !27
  %18 = getelementptr inbounds nuw %struct.Node, ptr %17, i32 0, i32 1
  %19 = load i64, ptr %18, align 8, !tbaa !32
  %20 = ashr i64 %19, 47
  %21 = trunc i64 %20 to i32
  %22 = icmp eq i32 %21, -5
  br i1 %22, label %23, label %35

23:                                               ; preds = %16
  %24 = load ptr, ptr %9, align 8, !tbaa !27
  %25 = getelementptr inbounds nuw %struct.Node, ptr %24, i32 0, i32 1
  %26 = getelementptr inbounds nuw %struct.GCRef, ptr %25, i32 0, i32 0
  %27 = load i64, ptr %26, align 8, !tbaa !32
  %28 = and i64 %27, 140737488355327
  %29 = inttoptr i64 %28 to ptr
  %30 = load ptr, ptr %7, align 8, !tbaa !66
  %31 = icmp eq ptr %29, %30
  br i1 %31, label %32, label %35

32:                                               ; preds = %23
  %33 = load ptr, ptr %9, align 8, !tbaa !27
  %34 = getelementptr inbounds nuw %struct.Node, ptr %33, i32 0, i32 0
  store ptr %34, ptr %4, align 8
  store i32 1, ptr %10, align 4
  br label %49

35:                                               ; preds = %23, %16
  br label %36

36:                                               ; preds = %35
  %37 = load ptr, ptr %9, align 8, !tbaa !27
  %38 = getelementptr inbounds nuw %struct.Node, ptr %37, i32 0, i32 2
  %39 = getelementptr inbounds nuw %struct.MRef, ptr %38, i32 0, i32 0
  %40 = load i64, ptr %39, align 8, !tbaa !35
  %41 = inttoptr i64 %40 to ptr
  store ptr %41, ptr %9, align 8, !tbaa !27
  %42 = icmp ne ptr %41, null
  br i1 %42, label %16, label %43, !llvm.loop !81

43:                                               ; preds = %36
  %44 = load ptr, ptr %5, align 8, !tbaa !4
  %45 = load ptr, ptr %7, align 8, !tbaa !66
  call void @setstrV(ptr noundef %44, ptr noundef %8, ptr noundef %45)
  %46 = load ptr, ptr %5, align 8, !tbaa !4
  %47 = load ptr, ptr %6, align 8, !tbaa !11
  %48 = call ptr @lj_tab_newkey(ptr noundef %46, ptr noundef %47, ptr noundef %8)
  store ptr %48, ptr %4, align 8
  store i32 1, ptr %10, align 4
  br label %49

49:                                               ; preds = %43, %32
  call void @llvm.lifetime.end.p0(i64 8, ptr %9) #9
  call void @llvm.lifetime.end.p0(i64 8, ptr %8) #9
  %50 = load ptr, ptr %4, align 8
  ret ptr %50
}