; Function Attrs: nounwind uwtable
define hidden ptr @lj_tab_setstr(ptr noundef %0, ptr noundef %1, ptr noundef %2) local_unnamed_addr #0 {
  %4 = alloca %union.TValue, align 8
  call void @llvm.lifetime.start.p0(i64 8, ptr nonnull %4) #11
  %5 = getelementptr inbounds nuw i8, ptr %2, i64 12
  %6 = load i32, ptr %5, align 4, !tbaa !47
  %7 = getelementptr inbounds nuw i8, ptr %1, i64 40
  %8 = load i64, ptr %7, align 8, !tbaa !15
  %9 = inttoptr i64 %8 to ptr
  %10 = getelementptr inbounds nuw i8, ptr %1, i64 52
  %11 = load i32, ptr %10, align 4, !tbaa !14
  %12 = and i32 %11, %6
  %13 = zext i32 %12 to i64
  %14 = getelementptr inbounds nuw %struct.Node, ptr %9, i64 %13
  br label %15

15:                                               ; preds = %22, %3
  %.0 = phi ptr [ %14, %3 ], [ %25, %22 ]
  %16 = getelementptr inbounds nuw i8, ptr %.0, i64 8
  %17 = load i64, ptr %16, align 8, !tbaa !13
  %.mask = and i64 %17, -140737488355328
  %18 = icmp eq i64 %.mask, -703687441776640
  %19 = and i64 %17, 140737488355327
  %20 = inttoptr i64 %19 to ptr
  %21 = icmp eq ptr %2, %20
  %or.cond = and i1 %18, %21
  br i1 %or.cond, label %.loopexit, label %22

22:                                               ; preds = %15
  %23 = getelementptr inbounds nuw i8, ptr %.0, i64 16
  %24 = load i64, ptr %23, align 8, !tbaa !16
  %25 = inttoptr i64 %24 to ptr
  %.not = icmp eq i64 %24, 0
  br i1 %.not, label %26, label %15, !llvm.loop !48

26:                                               ; preds = %22
  %27 = ptrtoint ptr %2 to i64
  %28 = or i64 %27, -703687441776640
  store i64 %28, ptr %4, align 8, !tbaa !13
  %29 = call ptr @lj_tab_newkey(ptr noundef %0, ptr noundef %1, ptr noundef nonnull %4)
  br label %.loopexit

.loopexit:                                        ; preds = %15, %26
  %.012 = phi ptr [ %29, %26 ], [ %.0, %15 ]
  call void @llvm.lifetime.end.p0(i64 8, ptr nonnull %4) #11
  ret ptr %.012
}